; ModuleID = '29/1915.c'
source_filename = "29/1915.c"
target datalayout = "e-m:e-p270:32:32-p271:32:32-p272:64:64-i64:64-f80:128-n8:16:32:64-S128"
target triple = "x86_64-pc-linux-gnu"

@.str = private unnamed_addr constant [3 x i8] c"%d\00", align 1
@.str.1 = private unnamed_addr constant [6 x i8] c"%.3f\0A\00", align 1

; Function Attrs: noinline nounwind uwtable
define dso_local i32 @main() #0 {
  %1 = alloca i32, align 4
  %2 = alloca i32, align 4
  %3 = alloca i32, align 4
  %4 = alloca i32, align 4
  %5 = alloca float, align 4
  %6 = alloca float, align 4
  %7 = alloca float, align 4
  %8 = alloca float, align 4
  %9 = alloca i32, align 4
  store i32 0, i32* %1, align 4
  %10 = call i32 (i8*, ...) @__isoc99_scanf(i8* getelementptr inbounds ([3 x i8], [3 x i8]* @.str, i64 0, i64 0), i32* %2)
  store i32 1, i32* %3, align 4
  br label %11

11:                                               ; preds = %39, %0
  %12 = load i32, i32* %3, align 4
  %13 = load i32, i32* %2, align 4
  %14 = icmp sle i32 %12, %13
  br i1 %14, label %15, label %42

15:                                               ; preds = %11
  %16 = call i32 (i8*, ...) @__isoc99_scanf(i8* getelementptr inbounds ([3 x i8], [3 x i8]* @.str, i64 0, i64 0), i32* %4)
  store float 2.000000e+00, float* %5, align 4
  store float 1.000000e+00, float* %6, align 4
  store float 0.000000e+00, float* %8, align 4
  store i32 1, i32* %9, align 4
  br label %17

17:                                               ; preds = %32, %15
  %18 = load i32, i32* %9, align 4
  %19 = load i32, i32* %4, align 4
  %20 = icmp sle i32 %18, %19
  br i1 %20, label %21, label %35

21:                                               ; preds = %17
  %22 = load float, float* %5, align 4
  %23 = load float, float* %6, align 4
  %24 = fdiv float %22, %23
  %25 = load float, float* %8, align 4
  %26 = fadd float %25, %24
  store float %26, float* %8, align 4
  %27 = load float, float* %5, align 4
  store float %27, float* %7, align 4
  %28 = load float, float* %6, align 4
  %29 = load float, float* %5, align 4
  %30 = fadd float %29, %28
  store float %30, float* %5, align 4
  %31 = load float, float* %7, align 4
  store float %31, float* %6, align 4
  br label %32

32:                                               ; preds = %21
  %33 = load i32, i32* %9, align 4
  %34 = add nsw i32 %33, 1
  store i32 %34, i32* %9, align 4
  br label %17

35:                                               ; preds = %17
  %36 = load float, float* %8, align 4
  %37 = fpext float %36 to double
  %38 = call i32 (i8*, ...) @printf(i8* getelementptr inbounds ([6 x i8], [6 x i8]* @.str.1, i64 0, i64 0), double %37)
  br label %39

39:                                               ; preds = %35
  %40 = load i32, i32* %3, align 4
  %41 = add nsw i32 %40, 1
  store i32 %41, i32* %3, align 4
  br label %11

42:                                               ; preds = %11
  %43 = load i32, i32* %1, align 4
  ret i32 %43
}

declare dso_local i32 @__isoc99_scanf(i8*, ...) #1

declare dso_local i32 @printf(i8*, ...) #1


!llvm.module.flags = !{!0}
!llvm.ident = !{!1}

!0 = !{i32 1, !"wchar_size", i32 4}
!1 = !{!"clang version 10.0.0-4ubuntu1 "}
